target datalayout = "e-m:e-p270:32:32-p271:32:32-p272:64:64-i64:64-i128:128-f80:128-n8:16:32:64-S128"
target triple = "x86_64-unknown-linux-gnu"

%"class.std::basic_string_view" = type { i64, ptr }
%"class.std::__cxx11::basic_string" = type { %"struct.std::__cxx11::basic_string<char>::_Alloc_hider", i64, %union.anon.30 }
%"struct.std::__cxx11::basic_string<char>::_Alloc_hider" = type { ptr }
%union.anon.30 = type { i64, [8 x i8] }
%"struct.grpc_core::(anonymous namespace)::MethodConfig::Name" = type { %"class.std::optional.121", %"class.std::optional.121" }
%"class.std::optional.121" = type { %"struct.std::_Optional_base.122" }
%"struct.std::_Optional_base.122" = type { %"struct.std::_Optional_payload.124" }
%"struct.std::_Optional_payload.124" = type { %"struct.std::_Optional_payload.base.128", [7 x i8] }
%"struct.std::_Optional_payload.base.128" = type { %"struct.std::_Optional_payload_base.base.127" }
%"struct.std::_Optional_payload_base.base.127" = type <{ %"union.std::_Optional_payload_base<std::__cxx11::basic_string<char>>::_Storage", i8 }>
%"union.std::_Optional_payload_base<std::__cxx11::basic_string<char>>::_Storage" = type { %"class.std::__cxx11::basic_string" }
%"struct.std::_Optional_payload_base.126" = type <{ %"union.std::_Optional_payload_base<std::__cxx11::basic_string<char>>::_Storage", i8, [7 x i8] }>
%"class.grpc_core::json_detail::Vec" = type { [2 x %"struct.grpc_core::json_detail::Element"] }
%"struct.grpc_core::json_detail::Element" = type { ptr, i16, i8, ptr, ptr }
%"class.grpc_core::json_detail::FinishedJsonObjectLoader" = type { %"class.grpc_core::json_detail::LoaderInterface", %"class.grpc_core::json_detail::Vec" }
%"class.grpc_core::json_detail::LoaderInterface" = type { ptr }

@.str.23 = private unnamed_addr constant [43 x i8] c"method name populated without service name\00", align 1

; Function Attrs: noreturn nounwind uwtable
define linkonce_odr hidden void @__clang_call_terminate(ptr noundef %0) #8 comdat {
  %2 = call ptr @__cxa_begin_catch(ptr %0) #3
  call void @_ZSt9terminatev() #14
  unreachable
}

; Function Attrs: mustprogress nounwind uwtable
define linkonce_odr noundef i64 @_ZNSt11char_traitsIcE6lengthEPKc(ptr noundef %__s) #6 comdat align 2 {
entry:
  %__s.addr = alloca ptr, align 8
  store ptr %__s, ptr %__s.addr, align 8
  %0 = load ptr, ptr %__s.addr, align 8
  %call = call i64 @strlen(ptr noundef %0) #3
  ret i64 %call
}

; Function Attrs: mustprogress nounwind uwtable
define linkonce_odr noundef zeroext i1 @_ZNKSt19_Optional_base_implINSt7__cxx1112basic_stringIcSt11char_traitsIcESaIcEEESt14_Optional_baseIS5_Lb0ELb0EEE13_M_is_engagedEv(ptr noundef nonnull align 1 dereferenceable(1) %this) #6 comdat align 2 {
entry:
  %this.addr = alloca ptr, align 8
  store ptr %this, ptr %this.addr, align 8
  %this1 = load ptr, ptr %this.addr, align 8
  %_M_payload = getelementptr inbounds %"struct.std::_Optional_base.122", ptr %this1, i32 0, i32 0
  %_M_engaged = getelementptr inbounds %"struct.std::_Optional_payload_base.126", ptr %_M_payload, i32 0, i32 1
  %0 = load i8, ptr %_M_engaged, align 8
  %tobool = trunc i8 %0 to i1
  ret i1 %tobool
}

; Function Attrs: mustprogress nounwind uwtable
define linkonce_odr void @_ZNSt17basic_string_viewIcSt11char_traitsIcEEC2EPKc(ptr noundef nonnull align 8 dereferenceable(16) %this, ptr noundef nonnull %__str) unnamed_addr #6 comdat align 2 personality ptr @__gxx_personality_v0 {
entry:
  %this.addr = alloca ptr, align 8
  %__str.addr = alloca ptr, align 8
  store ptr %this, ptr %this.addr, align 8
  store ptr %__str, ptr %__str.addr, align 8
  %this1 = load ptr, ptr %this.addr, align 8
  %_M_len = getelementptr inbounds %"class.std::basic_string_view", ptr %this1, i32 0, i32 0
  %0 = load ptr, ptr %__str.addr, align 8
  %call = invoke noundef i64 @_ZNSt11char_traitsIcE6lengthEPKc(ptr noundef %0)
          to label %invoke.cont unwind label %terminate.lpad

invoke.cont:                                      ; preds = %entry
  store i64 %call, ptr %_M_len, align 8
  %_M_str = getelementptr inbounds %"class.std::basic_string_view", ptr %this1, i32 0, i32 1
  %1 = load ptr, ptr %__str.addr, align 8
  store ptr %1, ptr %_M_str, align 8
  ret void

terminate.lpad:                                   ; preds = %entry
  %2 = landingpad { ptr, i32 }
          catch ptr null
  %3 = extractvalue { ptr, i32 } %2, 0
  call void @__clang_call_terminate(ptr %3) #14
  unreachable
}

; Function Attrs: mustprogress nounwind uwtable
define linkonce_odr noundef zeroext i1 @_ZNKSt8optionalINSt7__cxx1112basic_stringIcSt11char_traitsIcESaIcEEEE9has_valueEv(ptr noundef nonnull align 8 dereferenceable(40) %this) #6 comdat align 2 {
entry:
  %this.addr = alloca ptr, align 8
  store ptr %this, ptr %this.addr, align 8
  %this1 = load ptr, ptr %this.addr, align 8
  %call = call noundef zeroext i1 @_ZNKSt19_Optional_base_implINSt7__cxx1112basic_stringIcSt11char_traitsIcESaIcEEESt14_Optional_baseIS5_Lb0ELb0EEE13_M_is_engagedEv(ptr noundef nonnull align 1 dereferenceable(1) %this1) #3
  ret i1 %call
}

; Function Attrs: mustprogress uwtable
define internal void @_ZN9grpc_core12_GLOBAL__N_112MethodConfig4Name12JsonPostLoadERKNS_12experimental4JsonERKNS_8JsonArgsEPNS_16ValidationErrorsE(ptr noundef nonnull align 8 dereferenceable(80) %this, ptr noundef nonnull align 8 dereferenceable(56) %0, ptr noundef nonnull align 8 dereferenceable(8) %1, ptr noundef %errors) #4 align 2 {
entry:
  %this.addr = alloca ptr, align 8
  %.addr = alloca ptr, align 8
  %.addr1 = alloca ptr, align 8
  %errors.addr = alloca ptr, align 8
  %agg.tmp = alloca %"class.std::basic_string_view", align 8
  store ptr %this, ptr %this.addr, align 8
  store ptr %0, ptr %.addr, align 8
  store ptr %1, ptr %.addr1, align 8
  store ptr %errors, ptr %errors.addr, align 8
  %this2 = load ptr, ptr %this.addr, align 8
  %service = getelementptr inbounds %"struct.grpc_core::(anonymous namespace)::MethodConfig::Name", ptr %this2, i32 0, i32 0
  %call = call noundef zeroext i1 @_ZNKSt8optionalINSt7__cxx1112basic_stringIcSt11char_traitsIcESaIcEEEE9has_valueEv(ptr noundef nonnull align 8 dereferenceable(40) %service) #3
  br i1 %call, label %if.end, label %land.lhs.true

land.lhs.true:                                    ; preds = %entry
  %method = getelementptr inbounds %"struct.grpc_core::(anonymous namespace)::MethodConfig::Name", ptr %this2, i32 0, i32 1
  %call3 = call noundef zeroext i1 @_ZNKSt8optionalINSt7__cxx1112basic_stringIcSt11char_traitsIcESaIcEEEE9has_valueEv(ptr noundef nonnull align 8 dereferenceable(40) %method) #3
  br i1 %call3, label %if.then, label %if.end

if.then:                                          ; preds = %land.lhs.true
  %2 = load ptr, ptr %errors.addr, align 8
  call void @_ZNSt17basic_string_viewIcSt11char_traitsIcEEC2EPKc(ptr noundef nonnull align 8 dereferenceable(16) %agg.tmp, ptr noundef @.str.23) #3
  %3 = getelementptr inbounds { i64, ptr }, ptr %agg.tmp, i32 0, i32 0
  %4 = load i64, ptr %3, align 8
  %5 = getelementptr inbounds { i64, ptr }, ptr %agg.tmp, i32 0, i32 1
  %6 = load ptr, ptr %5, align 8
  call void @_ZN9grpc_core16ValidationErrors8AddErrorESt17basic_string_viewIcSt11char_traitsIcEE(ptr noundef nonnull align 8 dereferenceable(72) %2, i64 %4, ptr %6)
  br label %if.end

if.end:                                           ; preds = %if.then, %land.lhs.true, %entry
  ret void
}

; Function Attrs: mustprogress nounwind uwtable
define linkonce_odr noundef i64 @_ZNK9grpc_core11json_detail3VecINS0_7ElementELm2EE4sizeEv(ptr noundef nonnull align 8 dereferenceable(64) %this) #6 comdat align 2 {
entry:
  %this.addr = alloca ptr, align 8
  store ptr %this, ptr %this.addr, align 8
  ret i64 2
}

; Function Attrs: mustprogress nounwind uwtable
define linkonce_odr noundef ptr @_ZNK9grpc_core11json_detail3VecINS0_7ElementELm2EE4dataEv(ptr noundef nonnull align 8 dereferenceable(64) %this) #6 comdat align 2 {
entry:
  %this.addr = alloca ptr, align 8
  store ptr %this, ptr %this.addr, align 8
  %this1 = load ptr, ptr %this.addr, align 8
  %values_ = getelementptr inbounds %"class.grpc_core::json_detail::Vec", ptr %this1, i32 0, i32 0
  %arraydecay = getelementptr inbounds [2 x %"struct.grpc_core::json_detail::Element"], ptr %values_, i64 0, i64 0
  ret ptr %arraydecay
}

; Function Attrs: mustprogress uwtable
define internal void @_ZNK9grpc_core11json_detail24FinishedJsonObjectLoaderINS_12_GLOBAL__N_112MethodConfig4NameELm2EvE8LoadIntoERKNS_12experimental4JsonERKNS_8JsonArgsEPvPNS_16ValidationErrorsE(ptr noundef nonnull align 8 dereferenceable(72) %this, ptr noundef nonnull align 8 dereferenceable(56) %json, ptr noundef nonnull align 8 dereferenceable(8) %args, ptr noundef %dst, ptr noundef %errors) unnamed_addr #4 align 2 {
entry:
  %this.addr = alloca ptr, align 8
  %json.addr = alloca ptr, align 8
  %args.addr = alloca ptr, align 8
  %dst.addr = alloca ptr, align 8
  %errors.addr = alloca ptr, align 8
  store ptr %this, ptr %this.addr, align 8
  store ptr %json, ptr %json.addr, align 8
  store ptr %args, ptr %args.addr, align 8
  store ptr %dst, ptr %dst.addr, align 8
  store ptr %errors, ptr %errors.addr, align 8
  %this1 = load ptr, ptr %this.addr, align 8
  %0 = load ptr, ptr %json.addr, align 8
  %1 = load ptr, ptr %args.addr, align 8
  %elements_ = getelementptr inbounds %"class.grpc_core::json_detail::FinishedJsonObjectLoader", ptr %this1, i32 0, i32 1
  %call = call noundef ptr @_ZNK9grpc_core11json_detail3VecINS0_7ElementELm2EE4dataEv(ptr noundef nonnull align 8 dereferenceable(64) %elements_)
  %elements_2 = getelementptr inbounds %"class.grpc_core::json_detail::FinishedJsonObjectLoader", ptr %this1, i32 0, i32 1
  %call3 = call noundef i64 @_ZNK9grpc_core11json_detail3VecINS0_7ElementELm2EE4sizeEv(ptr noundef nonnull align 8 dereferenceable(64) %elements_2)
  %2 = load ptr, ptr %dst.addr, align 8
  %3 = load ptr, ptr %errors.addr, align 8
  %call4 = call noundef zeroext i1 @_ZN9grpc_core11json_detail10LoadObjectERKNS_12experimental4JsonERKNS_8JsonArgsEPKNS0_7ElementEmPvPNS_16ValidationErrorsE(ptr noundef nonnull align 8 dereferenceable(56) %0, ptr noundef nonnull align 8 dereferenceable(8) %1, ptr noundef %call, i64 noundef %call3, ptr noundef %2, ptr noundef %3)
  br i1 %call4, label %if.then, label %if.end

if.then:                                          ; preds = %entry
  %4 = load ptr, ptr %dst.addr, align 8
  %5 = load ptr, ptr %json.addr, align 8
  %6 = load ptr, ptr %args.addr, align 8
  %7 = load ptr, ptr %errors.addr, align 8
  call void @_ZN9grpc_core12_GLOBAL__N_112MethodConfig4Name12JsonPostLoadERKNS_12experimental4JsonERKNS_8JsonArgsEPNS_16ValidationErrorsE(ptr noundef nonnull align 8 dereferenceable(80) %4, ptr noundef nonnull align 8 dereferenceable(56) %5, ptr noundef nonnull align 8 dereferenceable(8) %6, ptr noundef %7)
  br label %if.end

if.end:                                           ; preds = %if.then, %entry
  ret void
}