; Function Attrs: mustprogress uwtable
define internal void @_ZNK9grpc_core11json_detail24FinishedJsonObjectLoaderINS_12_GLOBAL__N_112MethodConfig4NameELm2EvE8LoadIntoERKNS_12experimental4JsonERKNS_8JsonArgsEPvPNS_16ValidationErrorsE(ptr noundef nonnull align 8 dereferenceable(72) %this, ptr noundef nonnull align 8 dereferenceable(56) %json, ptr noundef nonnull align 8 dereferenceable(8) %args, ptr noundef %dst, ptr noundef %errors) unnamed_addr #3 align 2 personality ptr @__gxx_personality_v0 {
entry:
  %elements_ = getelementptr inbounds i8, ptr %this, i64 8
  %call4 = tail call noundef zeroext i1 @_ZN9grpc_core11json_detail10LoadObjectERKNS_12experimental4JsonERKNS_8JsonArgsEPKNS0_7ElementEmPvPNS_16ValidationErrorsE(ptr noundef nonnull align 8 dereferenceable(56) %json, ptr noundef nonnull align 8 dereferenceable(8) %args, ptr noundef nonnull %elements_, i64 noundef 2, ptr noundef %dst, ptr noundef %errors)
  br i1 %call4, label %if.then, label %if.end

if.then:                                          ; preds = %entry
  %0 = getelementptr i8, ptr %dst, i64 32
  %dst.val = load i8, ptr %0, align 8
  %1 = getelementptr i8, ptr %dst, i64 72
  %dst.val5 = load i8, ptr %1, align 8
  %2 = and i8 %dst.val, 1
  %tobool.i.i.i = icmp eq i8 %2, 0
  %3 = and i8 %dst.val5, 1
  %tobool.i.i2.i = icmp ne i8 %3, 0
  %or.cond.i = select i1 %tobool.i.i.i, i1 %tobool.i.i2.i, i1 false
  br i1 %or.cond.i, label %if.then.i, label %if.end

if.then.i:                                        ; preds = %if.then
  tail call void @_ZN9grpc_core16ValidationErrors8AddErrorESt17basic_string_viewIcSt11char_traitsIcEE(ptr noundef nonnull align 8 dereferenceable(72) %errors, i64 42, ptr nonnull @.str.23)
  br label %if.end

if.end:                                           ; preds = %if.then.i, %if.then, %entry
  ret void
}